; Function Attrs: uwtable
define void @_ZThn8_NK8QuantLib21TriggeredSwapExercise5guessEmRSt6vectorIdSaIdEE(ptr nocapture noundef readonly %this, i64 noundef %exerciseIndex, ptr noundef nonnull align 8 dereferenceable(24) %parameters) unnamed_addr #8 align 2 personality ptr @__gxx_personality_v0 {
entry:
  %_M_finish.i.i.i = getelementptr inbounds nuw i8, ptr %parameters, i64 8
  %0 = load ptr, ptr %_M_finish.i.i.i, align 8, !tbaa !6
  %1 = load ptr, ptr %parameters, align 8, !tbaa !10
  %sub.ptr.lhs.cast.i.i.i = ptrtoint ptr %0 to i64
  %sub.ptr.rhs.cast.i.i.i = ptrtoint ptr %1 to i64
  %sub.ptr.sub.i.i.i = sub i64 %sub.ptr.lhs.cast.i.i.i, %sub.ptr.rhs.cast.i.i.i
  %sub.ptr.div.i.i.i = ashr exact i64 %sub.ptr.sub.i.i.i, 3
  %cmp.i.i = icmp eq ptr %0, %1
  br i1 %cmp.i.i, label %if.then.i.i, label %if.else.i.i

if.then.i.i:                                      ; preds = %entry
  %sub.i.i = sub nuw nsw i64 1, %sub.ptr.div.i.i.i
  tail call void @_ZNSt6vectorIdSaIdEE17_M_default_appendEm(ptr noundef nonnull align 8 dereferenceable(24) %parameters, i64 noundef %sub.i.i)
  br label %_ZNSt6vectorIdSaIdEE6resizeEm.exit.i

if.else.i.i:                                      ; preds = %entry
  %cmp4.i.i = icmp ugt i64 %sub.ptr.div.i.i.i, 1
  br i1 %cmp4.i.i, label %if.then5.i.i, label %_ZNSt6vectorIdSaIdEE6resizeEm.exit.i

if.then5.i.i:                                     ; preds = %if.else.i.i
  %add.ptr.i.i = getelementptr inbounds nuw i8, ptr %1, i64 8
  %tobool.not.i.i.i = icmp eq ptr %0, %add.ptr.i.i
  br i1 %tobool.not.i.i.i, label %_ZNSt6vectorIdSaIdEE6resizeEm.exit.i, label %invoke.cont.i.i.i

invoke.cont.i.i.i:                                ; preds = %if.then5.i.i
  store ptr %add.ptr.i.i, ptr %_M_finish.i.i.i, align 8, !tbaa !6
  br label %_ZNSt6vectorIdSaIdEE6resizeEm.exit.i

_ZNSt6vectorIdSaIdEE6resizeEm.exit.i:             ; preds = %invoke.cont.i.i.i, %if.then5.i.i, %if.else.i.i, %if.then.i.i
  %strikes_.i = getelementptr inbounds i8, ptr %this, i64 56
  %_M_finish.i.i.i.i = getelementptr inbounds i8, ptr %this, i64 64
  %2 = load ptr, ptr %_M_finish.i.i.i.i, align 8, !tbaa !6
  %3 = load ptr, ptr %strikes_.i, align 8, !tbaa !10
  %sub.ptr.lhs.cast.i.i.i.i = ptrtoint ptr %2 to i64
  %sub.ptr.rhs.cast.i.i.i.i = ptrtoint ptr %3 to i64
  %sub.ptr.sub.i.i.i.i = sub i64 %sub.ptr.lhs.cast.i.i.i.i, %sub.ptr.rhs.cast.i.i.i.i
  %sub.ptr.div.i.i.i.i = ashr exact i64 %sub.ptr.sub.i.i.i.i, 3
  %cmp.not.i.i.i = icmp ult i64 %exerciseIndex, %sub.ptr.div.i.i.i.i
  br i1 %cmp.not.i.i.i, label %_ZNK8QuantLib21TriggeredSwapExercise5guessEmRSt6vectorIdSaIdEE.exit, label %if.then.i.i.i

if.then.i.i.i:                                    ; preds = %_ZNSt6vectorIdSaIdEE6resizeEm.exit.i
  tail call void (ptr, ...) @_ZSt24__throw_out_of_range_fmtPKcz(ptr noundef nonnull @.str.2, i64 noundef %exerciseIndex, i64 noundef %sub.ptr.div.i.i.i.i) #20
  unreachable

_ZNK8QuantLib21TriggeredSwapExercise5guessEmRSt6vectorIdSaIdEE.exit: ; preds = %_ZNSt6vectorIdSaIdEE6resizeEm.exit.i
  %add.ptr.i.i.i = getelementptr inbounds nuw double, ptr %3, i64 %exerciseIndex
  %4 = load double, ptr %add.ptr.i.i.i, align 8, !tbaa !38
  %5 = load ptr, ptr %parameters, align 8, !tbaa !10
  store double %4, ptr %5, align 8, !tbaa !38
  ret void
}